target datalayout = "e-m:e-p270:32:32-p271:32:32-p272:64:64-i64:64-i128:128-f80:128-n8:16:32:64-S128"
target triple = "x86_64-pc-linux-gnu"

%struct.Ivy_Obj_t_ = type { i32, i32, i32, i32, ptr, ptr, ptr, ptr, ptr, ptr, ptr, ptr }
%struct.Ivy_Man_t_ = type { ptr, ptr, ptr, ptr, ptr, %struct.Ivy_Obj_t_, [8 x i32], i32, i32, ptr, i32, i32, i32, i32, ptr, i32, ptr, ptr, ptr, i32, ptr, ptr, ptr, i64, i64 }
%struct.timespec = type { i64, i64 }

; Function Attrs: inlinehint nounwind uwtable
define internal i64 @Abc_Clock() #2 {
  %1 = alloca i64, align 8
  %2 = alloca %struct.timespec, align 8
  %3 = alloca i32, align 4
  %4 = alloca i64, align 8
  call void @llvm.lifetime.start.p0(i64 16, ptr %2) #11
  %5 = call i32 @clock_gettime(i32 noundef 1, ptr noundef %2) #11
  %6 = icmp slt i32 %5, 0
  br i1 %6, label %7, label %8

7:                                                ; preds = %0
  store i64 -1, ptr %1, align 8
  store i32 1, ptr %3, align 4
  br label %19

8:                                                ; preds = %0
  call void @llvm.lifetime.start.p0(i64 8, ptr %4) #11
  %9 = getelementptr inbounds nuw %struct.timespec, ptr %2, i32 0, i32 0
  %10 = load i64, ptr %9, align 8, !tbaa !144
  %11 = mul nsw i64 %10, 1000000
  store i64 %11, ptr %4, align 8, !tbaa !57
  %12 = getelementptr inbounds nuw %struct.timespec, ptr %2, i32 0, i32 1
  %13 = load i64, ptr %12, align 8, !tbaa !146
  %14 = mul nsw i64 %13, 1000000
  %15 = sdiv i64 %14, 1000000000
  %16 = load i64, ptr %4, align 8, !tbaa !57
  %17 = add nsw i64 %16, %15
  store i64 %17, ptr %4, align 8, !tbaa !57
  %18 = load i64, ptr %4, align 8, !tbaa !57
  store i64 %18, ptr %1, align 8
  store i32 1, ptr %3, align 4
  call void @llvm.lifetime.end.p0(i64 8, ptr %4) #11
  br label %19

19:                                               ; preds = %8, %7
  call void @llvm.lifetime.end.p0(i64 16, ptr %2) #11
  %20 = load i64, ptr %1, align 8
  ret i64 %20
}

; Function Attrs: nounwind uwtable
define ptr @Abc_NtkIvyHaig(ptr noundef %0, i32 noundef %1, i32 noundef %2, i32 noundef %3) #0 {
  %5 = alloca ptr, align 8
  %6 = alloca ptr, align 8
  %7 = alloca i32, align 4
  %8 = alloca i32, align 4
  %9 = alloca i32, align 4
  %10 = alloca ptr, align 8
  %11 = alloca ptr, align 8
  %12 = alloca i64, align 8
  %13 = alloca i32, align 4
  store ptr %0, ptr %6, align 8, !tbaa !3
  store i32 %1, ptr %7, align 4, !tbaa !8
  store i32 %2, ptr %8, align 4, !tbaa !8
  store i32 %3, ptr %9, align 4, !tbaa !8
  call void @llvm.lifetime.start.p0(i64 8, ptr %10) #11
  call void @llvm.lifetime.start.p0(i64 8, ptr %11) #11
  call void @llvm.lifetime.start.p0(i64 8, ptr %12) #11
  %14 = load ptr, ptr %6, align 8, !tbaa !3
  %15 = call ptr @Abc_NtkIvyBefore(ptr noundef %14, i32 noundef 1, i32 noundef 1)
  store ptr %15, ptr %11, align 8, !tbaa !10
  %16 = load ptr, ptr %11, align 8, !tbaa !10
  %17 = icmp eq ptr %16, null
  br i1 %17, label %18, label %19

18:                                               ; preds = %4
  store ptr null, ptr %5, align 8
  store i32 1, ptr %13, align 4
  br label %37

19:                                               ; preds = %4
  %20 = call i64 @Abc_Clock()
  store i64 %20, ptr %12, align 8, !tbaa !57
  %21 = load ptr, ptr %11, align 8, !tbaa !10
  %22 = load i32, ptr %9, align 4, !tbaa !8
  call void @Ivy_ManHaigStart(ptr noundef %21, i32 noundef %22)
  %23 = load ptr, ptr %11, align 8, !tbaa !10
  %24 = call i32 @Ivy_ManRewriteSeq(ptr noundef %23, i32 noundef 0, i32 noundef 0)
  %25 = load ptr, ptr %11, align 8, !tbaa !10
  %26 = call i32 @Ivy_ManRewriteSeq(ptr noundef %25, i32 noundef 0, i32 noundef 0)
  %27 = load ptr, ptr %11, align 8, !tbaa !10
  %28 = call i32 @Ivy_ManRewriteSeq(ptr noundef %27, i32 noundef 1, i32 noundef 0)
  %29 = load ptr, ptr %6, align 8, !tbaa !3
  %30 = load ptr, ptr %11, align 8, !tbaa !10
  %31 = getelementptr inbounds nuw %struct.Ivy_Man_t_, ptr %30, i32 0, i32 18
  %32 = load ptr, ptr %31, align 8, !tbaa !59
  %33 = call ptr @Abc_NtkIvyAfter(ptr noundef %29, ptr noundef %32, i32 noundef 1, i32 noundef 1)
  store ptr %33, ptr %10, align 8, !tbaa !3
  %34 = load ptr, ptr %11, align 8, !tbaa !10
  call void @Ivy_ManHaigStop(ptr noundef %34)
  %35 = load ptr, ptr %11, align 8, !tbaa !10
  call void @Ivy_ManStop(ptr noundef %35)
  %36 = load ptr, ptr %10, align 8, !tbaa !3
  store ptr %36, ptr %5, align 8
  store i32 1, ptr %13, align 4
  br label %37

37:                                               ; preds = %19, %18
  call void @llvm.lifetime.end.p0(i64 8, ptr %12) #11
  call void @llvm.lifetime.end.p0(i64 8, ptr %11) #11
  call void @llvm.lifetime.end.p0(i64 8, ptr %10) #11
  %38 = load ptr, ptr %5, align 8
  ret ptr %38
}