; Function Attrs: nounwind uwtable
define noundef ptr @Abc_NtkIvyHaig(ptr noundef %0, i32 noundef %1, i32 noundef %2, i32 noundef %3) local_unnamed_addr #0 {
  %5 = alloca %struct.timespec, align 8
  %6 = tail call ptr @Abc_NtkIvyBefore(ptr noundef %0, i32 noundef 1, i32 noundef 1)
  %7 = icmp eq ptr %6, null
  br i1 %7, label %15, label %Abc_Clock.exit

Abc_Clock.exit:                                   ; preds = %4
  call void @llvm.lifetime.start.p0(i64 16, ptr nonnull %5) #15
  %8 = call i32 @clock_gettime(i32 noundef 1, ptr noundef nonnull %5) #15
  call void @llvm.lifetime.end.p0(i64 16, ptr nonnull %5) #15
  call void @Ivy_ManHaigStart(ptr noundef nonnull %6, i32 noundef %3) #15
  %9 = call i32 @Ivy_ManRewriteSeq(ptr noundef nonnull %6, i32 noundef 0, i32 noundef 0) #15
  %10 = call i32 @Ivy_ManRewriteSeq(ptr noundef nonnull %6, i32 noundef 0, i32 noundef 0) #15
  %11 = call i32 @Ivy_ManRewriteSeq(ptr noundef nonnull %6, i32 noundef 1, i32 noundef 0) #15
  %12 = getelementptr inbounds nuw i8, ptr %6, i64 216
  %13 = load ptr, ptr %12, align 8, !tbaa !87
  %14 = call ptr @Abc_NtkIvyAfter(ptr noundef %0, ptr noundef %13, i32 noundef 1, i32 noundef 1)
  call void @Ivy_ManHaigStop(ptr noundef nonnull %6) #15
  call void @Ivy_ManStop(ptr noundef nonnull %6) #15
  br label %15

15:                                               ; preds = %4, %Abc_Clock.exit
  %.0 = phi ptr [ %14, %Abc_Clock.exit ], [ null, %4 ]
  ret ptr %.0
}